Certificate:
    Data:
        Version: 3 (0x2)
        Serial Number:
            07:f2:f3:5c:87:a8:77:af:7a:ef:e9:47:99:35:25:bd
        Signature Algorithm: sha384WithRSAEncryption
        Issuer: C = US, O = DigiCert Inc, OU = www.digicert.com, CN = DigiCert Global Root CA
        Validity
            Not Before: Apr 14 00:00:00 2021 GMT
            Not After : Apr 13 23:59:59 2031 GMT
        Subject: C = US, O = DigiCert Inc, CN = DigiCert TLS Hybrid ECC SHA384 2020 CA1
        Subject Public Key Info:
            Public Key Algorithm: id-ecPublicKey
                Public-Key: (384 bit)
                pub:
                    04:c1:1b:c6:9a:5b:98:d9:a4:29:a0:e9:d4:04:b5:
                    db:eb:a6:b2:6c:55:c0:ff:ed:98:c6:49:2f:06:27:
                    51:cb:bf:70:c1:05:7a:c3:b1:9d:87:89:ba:ad:b4:
                    13:17:c9:a8:b4:83:c8:b8:90:d1:cc:74:35:36:3c:
                    83:72:b0:b5:d0:f7:22:69:c8:f1:80:c4:7b:40:8f:
                    cf:68:87:26:5c:39:89:f1:4d:91:4d:da:89:8b:e4:
                    03:c3:43:e5:bf:2f:73
                ASN1 OID: secp384r1
                NIST CURVE: P-384
        X509v3 extensions:
            X509v3 Basic Constraints: critical
                CA:TRUE, pathlen:0
            X509v3 Subject Key Identifier: 
                0A:BC:08:29:17:8C:A5:39:6D:7A:0E:CE:33:C7:2E:B3:ED:FB:C3:7A
            X509v3 Authority Key Identifier: 
                03:DE:50:35:56:D1:4C:BB:66:F0:A3:E2:1B:1B:C3:97:B2:3D:D1:55
            X509v3 Key Usage: critical
                Digital Signature, Certificate Sign, CRL Sign
            X509v3 Extended Key Usage: 
                TLS Web Server Authentication, TLS Web Client Authentication
            Authority Information Access: 
                OCSP - URI:http://ocsp.digicert.com
                CA Issuers - URI:http://cacerts.digicert.com/DigiCertGlobalRootCA.crt
            X509v3 CRL Distribution Points: 
                Full Name:
                  URI:http://crl3.digicert.com/DigiCertGlobalRootCA.crl
            X509v3 Certificate Policies: 
                Policy: 2.16.840.1.114412.2.1
                Policy: 2.23.140.1.1
                Policy: 2.23.140.1.2.1
                Policy: 2.23.140.1.2.2
                Policy: 2.23.140.1.2.3
    Signature Algorithm: sha384WithRSAEncryption
    Signature Value:
        47:59:81:7f:d4:1b:1f:b0:71:f6:98:5d:18:ba:98:47:98:b0:
        7e:76:2b:ea:ff:1a:8b:ac:26:b3:42:8d:31:e6:4a:e8:19:d0:
        ef:da:14:e7:d7:14:92:a1:92:f2:a7:2e:2d:af:fb:1d:f6:fb:
        53:b0:8a:3f:fc:d8:16:0a:e9:b0:2e:b6:a5:0b:18:90:35:26:
        a2:da:f6:a8:b7:32:fc:95:23:4b:c6:45:b9:c4:cf:e4:7c:ee:
        e6:c9:f8:90:bd:72:e3:99:c3:1d:0b:05:7c:6a:97:6d:b2:ab:
        02:36:d8:c2:bc:2c:01:92:3f:04:a3:8b:75:11:c7:b9:29:bc:
        11:d0:86:ba:92:bc:26:f9:65:c8:37:cd:26:f6:86:13:0c:04:
        aa:89:e5:78:b1:c1:4e:79:bc:76:a3:0b:51:e4:c5:d0:9e:6a:
        fe:1a:2c:56:ae:06:36:27:a3:73:1c:08:7d:93:32:d0:c2:44:
        19:da:8d:f4:0e:7b:1d:28:03:2b:09:8a:76:ca:77:dc:87:7a:
        ac:7b:52:26:55:a7:72:0f:9d:d2:88:4f:fe:b1:21:c5:1a:a1:
        aa:39:f5:56:db:c2:84:c4:35:1f:70:da:bb:46:f0:86:bf:64:
        00:c4:3e:f7:9f:46:1b:9d:23:05:b9:7d:b3:4f:0f:a9:45:3a:
        e3:74:30:98
-----BEGIN CERTIFICATE-----
MIIEFzCCAv+gAwIBAgIQB/LzXIeod6967+lHmTUlvTANBgkqhkiG9w0BAQwFADBh
MQswCQYDVQQGEwJVUzEVMBMGA1UEChMMRGlnaUNlcnQgSW5jMRkwFwYDVQQLExB3
d3cuZGlnaWNlcnQuY29tMSAwHgYDVQQDExdEaWdpQ2VydCBHbG9iYWwgUm9vdCBD
QTAeFw0yMTA0MTQwMDAwMDBaFw0zMTA0MTMyMzU5NTlaMFYxCzAJBgNVBAYTAlVT
MRUwEwYDVQQKEwxEaWdpQ2VydCBJbmMxMDAuBgNVBAMTJ0RpZ2lDZXJ0IFRMUyBI
eWJyaWQgRUNDIFNIQTM4NCAyMDIwIENBMTB2MBAGByqGSM49AgEGBSuBBAAiA2IA
BMEbxppbmNmkKaDp1AS12+umsmxVwP/tmMZJLwYnUcu/cMEFesOxnYeJuq20ExfJ
qLSDyLiQ0cx0NTY8g3KwtdD3ImnI8YDEe0CPz2iHJlw5ifFNkU3aiYvkA8ND5b8v
c6OCAYIwggF+MBIGA1UdEwEB/wQIMAYBAf8CAQAwHQYDVR0OBBYEFAq8CCkXjKU5
bXoOzjPHLrPt+8N6MB8GA1UdIwQYMBaAFAPeUDVW0Uy7ZvCj4hsbw5eyPdFVMA4G
A1UdDwEB/wQEAwIBhjAdBgNVHSUEFjAUBggrBgEFBQcDAQYIKwYBBQUHAwIwdgYI
KwYBBQUHAQEEajBoMCQGCCsGAQUFBzABhhhodHRwOi8vb2NzcC5kaWdpY2VydC5j
b20wQAYIKwYBBQUHMAKGNGh0dHA6Ly9jYWNlcnRzLmRpZ2ljZXJ0LmNvbS9EaWdp
Q2VydEdsb2JhbFJvb3RDQS5jcnQwQgYDVR0fBDswOTA3oDWgM4YxaHR0cDovL2Ny
bDMuZGlnaWNlcnQuY29tL0RpZ2lDZXJ0R2xvYmFsUm9vdENBLmNybDA9BgNVHSAE
NjA0MAsGCWCGSAGG/WwCATAHBgVngQwBATAIBgZngQwBAgEwCAYGZ4EMAQICMAgG
BmeBDAECAzANBgkqhkiG9w0BAQwFAAOCAQEAR1mBf9QbH7Bx9phdGLqYR5iwfnYr
6v8ai6wms0KNMeZK6BnQ79oU59cUkqGS8qcuLa/7Hfb7U7CKP/zYFgrpsC62pQsY
kDUmotr2qLcy/JUjS8ZFucTP5Hzu5sn4kL1y45nDHQsFfGqXbbKrAjbYwrwsAZI/
BKOLdRHHuSm8EdCGupK8JvllyDfNJvaGEwwEqonleLHBTnm8dqMLUeTF0J5q/hos
Vq4GNiejcxwIfZMy0MJEGdqN9A57HSgDKwmKdsp33Id6rHtSJlWncg+d0ohP/rEh
xRqhqjn1VtvChMQ1H3Dau0bwhr9kAMQ+959GG50jBbl9s08PqUU643QwmA==
-----END CERTIFICATE-----
